; Function Attrs: nounwind uwtable
define internal noundef ptr @type_assign_specific_version_unsafe(ptr readnone captures(none) %0, ptr noundef %1) #0 {
  %3 = alloca ptr, align 8
  %4 = alloca i32, align 4
  call void @llvm.lifetime.start.p0(i64 8, ptr nonnull %3) #11
  call void @llvm.lifetime.start.p0(i64 4, ptr nonnull %4) #11
  %5 = call i32 (ptr, ptr, ...) @PyArg_ParseTuple(ptr noundef %1, ptr noundef nonnull @.str.268, ptr noundef nonnull %3, ptr noundef nonnull %4) #11
  %.not = icmp eq i32 %5, 0
  br i1 %.not, label %13, label %6

6:                                                ; preds = %2
  %7 = load ptr, ptr %3, align 8, !tbaa !265
  %8 = getelementptr i8, ptr %7, i64 168
  %.val = load i64, ptr %8, align 8, !tbaa !49
  %9 = and i64 %.val, 256
  %.not2 = icmp eq i64 %9, 0
  br i1 %.not2, label %11, label %10

10:                                               ; preds = %6
  call void @__assert_fail(ptr noundef nonnull @.str.269, ptr noundef nonnull @.str.80, i32 noundef 1937, ptr noundef nonnull @__PRETTY_FUNCTION__.type_assign_specific_version_unsafe) #12
  unreachable

11:                                               ; preds = %6
  %12 = load i32, ptr %4, align 4, !tbaa !25
  call void @_PyType_SetVersion(ptr noundef nonnull %7, i32 noundef %12) #11
  br label %13

13:                                               ; preds = %2, %11
  %.0 = phi ptr [ @_Py_NoneStruct, %11 ], [ null, %2 ]
  call void @llvm.lifetime.end.p0(i64 4, ptr nonnull %4) #11
  call void @llvm.lifetime.end.p0(i64 8, ptr nonnull %3) #11
  ret ptr %.0
}